target datalayout = "e-m:e-p270:32:32-p271:32:32-p272:64:64-i64:64-i128:128-f80:128-n8:16:32:64-S128"
target triple = "x86_64-pc-linux-gnu"

%struct.fdt_header = type { i32, i32, i32, i32, i32, i32, i32, i32, i32, i32 }
%struct.fdt_property = type { i32, i32, i32, [0 x i8] }

; Function Attrs: inlinehint nounwind uwtable
define internal ptr @fdt_offset_ptr_(ptr noundef %0, i32 noundef %1) #3 {
  %3 = alloca ptr, align 8
  %4 = alloca i32, align 4
  store ptr %0, ptr %3, align 8, !tbaa !3
  store i32 %1, ptr %4, align 4, !tbaa !7
  %5 = load ptr, ptr %3, align 8, !tbaa !3
  %6 = load ptr, ptr %3, align 8, !tbaa !3
  %7 = getelementptr inbounds nuw %struct.fdt_header, ptr %6, i32 0, i32 2
  %8 = call i32 @fdt32_ld(ptr noundef %7)
  %9 = zext i32 %8 to i64
  %10 = getelementptr inbounds nuw i8, ptr %5, i64 %9
  %11 = load i32, ptr %4, align 4, !tbaa !7
  %12 = sext i32 %11 to i64
  %13 = getelementptr inbounds i8, ptr %10, i64 %12
  ret ptr %13
}

; Function Attrs: inlinehint nounwind uwtable
define internal i32 @fdt32_ld(ptr noundef %0) #3 {
  %2 = alloca ptr, align 8
  %3 = alloca ptr, align 8
  store ptr %0, ptr %2, align 8, !tbaa !9
  call void @llvm.lifetime.start.p0(i64 8, ptr %3) #6
  %4 = load ptr, ptr %2, align 8, !tbaa !9
  store ptr %4, ptr %3, align 8, !tbaa !13
  %5 = load ptr, ptr %3, align 8, !tbaa !13
  %6 = getelementptr inbounds i8, ptr %5, i64 0
  %7 = load i8, ptr %6, align 1, !tbaa !15
  %8 = zext i8 %7 to i32
  %9 = shl i32 %8, 24
  %10 = load ptr, ptr %3, align 8, !tbaa !13
  %11 = getelementptr inbounds i8, ptr %10, i64 1
  %12 = load i8, ptr %11, align 1, !tbaa !15
  %13 = zext i8 %12 to i32
  %14 = shl i32 %13, 16
  %15 = or i32 %9, %14
  %16 = load ptr, ptr %3, align 8, !tbaa !13
  %17 = getelementptr inbounds i8, ptr %16, i64 2
  %18 = load i8, ptr %17, align 1, !tbaa !15
  %19 = zext i8 %18 to i32
  %20 = shl i32 %19, 8
  %21 = or i32 %15, %20
  %22 = load ptr, ptr %3, align 8, !tbaa !13
  %23 = getelementptr inbounds i8, ptr %22, i64 3
  %24 = load i8, ptr %23, align 1, !tbaa !15
  %25 = zext i8 %24 to i32
  %26 = or i32 %21, %25
  call void @llvm.lifetime.end.p0(i64 8, ptr %3) #6
  ret i32 %26
}

; Function Attrs: nounwind uwtable
define internal ptr @fdt_get_property_by_offset_(ptr noundef %0, i32 noundef %1, ptr noundef %2) #0 {
  %4 = alloca ptr, align 8
  %5 = alloca ptr, align 8
  %6 = alloca i32, align 4
  %7 = alloca ptr, align 8
  %8 = alloca i32, align 4
  %9 = alloca ptr, align 8
  %10 = alloca i32, align 4
  store ptr %0, ptr %5, align 8, !tbaa !3
  store i32 %1, ptr %6, align 4, !tbaa !7
  store ptr %2, ptr %7, align 8, !tbaa !9
  call void @llvm.lifetime.start.p0(i64 4, ptr %8) #6
  call void @llvm.lifetime.start.p0(i64 8, ptr %9) #6
  %11 = load ptr, ptr %5, align 8, !tbaa !3
  %12 = load i32, ptr %6, align 4, !tbaa !7
  %13 = call i32 @fdt_check_prop_offset_(ptr noundef %11, i32 noundef %12)
  store i32 %13, ptr %8, align 4, !tbaa !7
  %14 = icmp slt i32 %13, 0
  br i1 %14, label %15, label %22

15:                                               ; preds = %3
  %16 = load ptr, ptr %7, align 8, !tbaa !9
  %17 = icmp ne ptr %16, null
  br i1 %17, label %18, label %21

18:                                               ; preds = %15
  %19 = load i32, ptr %8, align 4, !tbaa !7
  %20 = load ptr, ptr %7, align 8, !tbaa !9
  store i32 %19, ptr %20, align 4, !tbaa !7
  br label %21

21:                                               ; preds = %18, %15
  store ptr null, ptr %4, align 8
  store i32 1, ptr %10, align 4
  br label %35

22:                                               ; preds = %3
  %23 = load ptr, ptr %5, align 8, !tbaa !3
  %24 = load i32, ptr %6, align 4, !tbaa !7
  %25 = call ptr @fdt_offset_ptr_(ptr noundef %23, i32 noundef %24)
  store ptr %25, ptr %9, align 8, !tbaa !28
  %26 = load ptr, ptr %7, align 8, !tbaa !9
  %27 = icmp ne ptr %26, null
  br i1 %27, label %28, label %33

28:                                               ; preds = %22
  %29 = load ptr, ptr %9, align 8, !tbaa !28
  %30 = getelementptr inbounds nuw %struct.fdt_property, ptr %29, i32 0, i32 1
  %31 = call i32 @fdt32_ld(ptr noundef %30)
  %32 = load ptr, ptr %7, align 8, !tbaa !9
  store i32 %31, ptr %32, align 4, !tbaa !7
  br label %33

33:                                               ; preds = %28, %22
  %34 = load ptr, ptr %9, align 8, !tbaa !28
  store ptr %34, ptr %4, align 8
  store i32 1, ptr %10, align 4
  br label %35

35:                                               ; preds = %33, %21
  call void @llvm.lifetime.end.p0(i64 8, ptr %9) #6
  call void @llvm.lifetime.end.p0(i64 4, ptr %8) #6
  %36 = load ptr, ptr %4, align 8
  ret ptr %36
}

; Function Attrs: nounwind uwtable
define ptr @fdt_getprop_by_offset(ptr noundef %0, i32 noundef %1, ptr noundef %2, ptr noundef %3) #0 {
  %5 = alloca ptr, align 8
  %6 = alloca ptr, align 8
  %7 = alloca i32, align 4
  %8 = alloca ptr, align 8
  %9 = alloca ptr, align 8
  %10 = alloca ptr, align 8
  %11 = alloca i32, align 4
  %12 = alloca ptr, align 8
  %13 = alloca i32, align 4
  store ptr %0, ptr %6, align 8, !tbaa !3
  store i32 %1, ptr %7, align 4, !tbaa !7
  store ptr %2, ptr %8, align 8, !tbaa !31
  store ptr %3, ptr %9, align 8, !tbaa !9
  call void @llvm.lifetime.start.p0(i64 8, ptr %10) #6
  %14 = load ptr, ptr %6, align 8, !tbaa !3
  %15 = load i32, ptr %7, align 4, !tbaa !7
  %16 = load ptr, ptr %9, align 8, !tbaa !9
  %17 = call ptr @fdt_get_property_by_offset_(ptr noundef %14, i32 noundef %15, ptr noundef %16)
  store ptr %17, ptr %10, align 8, !tbaa !28
  %18 = load ptr, ptr %10, align 8, !tbaa !28
  %19 = icmp ne ptr %18, null
  br i1 %19, label %21, label %20

20:                                               ; preds = %4
  store ptr null, ptr %5, align 8
  store i32 1, ptr %11, align 4
  br label %70

21:                                               ; preds = %4
  %22 = load ptr, ptr %8, align 8, !tbaa !31
  %23 = icmp ne ptr %22, null
  br i1 %23, label %24, label %45

24:                                               ; preds = %21
  call void @llvm.lifetime.start.p0(i64 8, ptr %12) #6
  call void @llvm.lifetime.start.p0(i64 4, ptr %13) #6
  %25 = load ptr, ptr %6, align 8, !tbaa !3
  %26 = load ptr, ptr %10, align 8, !tbaa !28
  %27 = getelementptr inbounds nuw %struct.fdt_property, ptr %26, i32 0, i32 2
  %28 = call i32 @fdt32_ld(ptr noundef %27)
  %29 = call ptr @fdt_get_string(ptr noundef %25, i32 noundef %28, ptr noundef %13)
  store ptr %29, ptr %12, align 8, !tbaa !13
  %30 = load ptr, ptr %12, align 8, !tbaa !13
  %31 = icmp ne ptr %30, null
  br i1 %31, label %39, label %32

32:                                               ; preds = %24
  %33 = load ptr, ptr %9, align 8, !tbaa !9
  %34 = icmp ne ptr %33, null
  br i1 %34, label %35, label %38

35:                                               ; preds = %32
  %36 = load i32, ptr %13, align 4, !tbaa !7
  %37 = load ptr, ptr %9, align 8, !tbaa !9
  store i32 %36, ptr %37, align 4, !tbaa !7
  br label %38

38:                                               ; preds = %35, %32
  store ptr null, ptr %5, align 8
  store i32 1, ptr %11, align 4
  br label %42

39:                                               ; preds = %24
  %40 = load ptr, ptr %12, align 8, !tbaa !13
  %41 = load ptr, ptr %8, align 8, !tbaa !31
  store ptr %40, ptr %41, align 8, !tbaa !13
  store i32 0, ptr %11, align 4
  br label %42

42:                                               ; preds = %39, %38
  call void @llvm.lifetime.end.p0(i64 4, ptr %13) #6
  call void @llvm.lifetime.end.p0(i64 8, ptr %12) #6
  %43 = load i32, ptr %11, align 4
  switch i32 %43, label %70 [
    i32 0, label %44
  ]

44:                                               ; preds = %42
  br label %45

45:                                               ; preds = %44, %21
  %46 = load ptr, ptr %6, align 8, !tbaa !3
  %47 = getelementptr inbounds nuw %struct.fdt_header, ptr %46, i32 0, i32 5
  %48 = call i32 @fdt32_ld(ptr noundef %47)
  %49 = icmp ult i32 %48, 16
  br i1 %49, label %50, label %66

50:                                               ; preds = %45
  %51 = load i32, ptr %7, align 4, !tbaa !7
  %52 = sext i32 %51 to i64
  %53 = add i64 %52, 12
  %54 = urem i64 %53, 8
  %55 = icmp ne i64 %54, 0
  br i1 %55, label %56, label %66

56:                                               ; preds = %50
  %57 = load ptr, ptr %10, align 8, !tbaa !28
  %58 = getelementptr inbounds nuw %struct.fdt_property, ptr %57, i32 0, i32 1
  %59 = call i32 @fdt32_ld(ptr noundef %58)
  %60 = icmp uge i32 %59, 8
  br i1 %60, label %61, label %66

61:                                               ; preds = %56
  %62 = load ptr, ptr %10, align 8, !tbaa !28
  %63 = getelementptr inbounds nuw %struct.fdt_property, ptr %62, i32 0, i32 3
  %64 = getelementptr inbounds [0 x i8], ptr %63, i64 0, i64 0
  %65 = getelementptr inbounds i8, ptr %64, i64 4
  store ptr %65, ptr %5, align 8
  store i32 1, ptr %11, align 4
  br label %70

66:                                               ; preds = %56, %50, %45
  %67 = load ptr, ptr %10, align 8, !tbaa !28
  %68 = getelementptr inbounds nuw %struct.fdt_property, ptr %67, i32 0, i32 3
  %69 = getelementptr inbounds [0 x i8], ptr %68, i64 0, i64 0
  store ptr %69, ptr %5, align 8
  store i32 1, ptr %11, align 4
  br label %70

70:                                               ; preds = %66, %61, %42, %20
  call void @llvm.lifetime.end.p0(i64 8, ptr %10) #6
  %71 = load ptr, ptr %5, align 8
  ret ptr %71
}