; Function Attrs: nounwind uwtable
define ptr @fdt_getprop_by_offset(ptr noundef %0, i32 noundef %1, ptr noundef writeonly captures(address_is_null) %2, ptr noundef writeonly captures(address_is_null) %3) local_unnamed_addr #0 {
  %5 = alloca i32, align 4
  %6 = tail call i32 @fdt_check_prop_offset_(ptr noundef %0, i32 noundef %1) #9
  %7 = icmp slt i32 %6, 0
  br i1 %7, label %8, label %9

8:                                                ; preds = %4
  %.not13.i = icmp eq ptr %3, null
  br i1 %.not13.i, label %fdt_get_property_by_offset_.exit.thread, label %fdt_get_property_by_offset_.exit.thread33

fdt_get_property_by_offset_.exit.thread33:        ; preds = %8
  store i32 %6, ptr %3, align 4, !tbaa !6
  br label %fdt_get_property_by_offset_.exit.thread

9:                                                ; preds = %4
  %10 = getelementptr inbounds nuw i8, ptr %0, i64 8
  %11 = load i8, ptr %10, align 1, !tbaa !3
  %12 = zext i8 %11 to i64
  %13 = shl nuw nsw i64 %12, 24
  %14 = getelementptr inbounds nuw i8, ptr %0, i64 9
  %15 = load i8, ptr %14, align 1, !tbaa !3
  %16 = zext i8 %15 to i64
  %17 = shl nuw nsw i64 %16, 16
  %18 = or disjoint i64 %17, %13
  %19 = getelementptr inbounds nuw i8, ptr %0, i64 10
  %20 = load i8, ptr %19, align 1, !tbaa !3
  %21 = zext i8 %20 to i64
  %22 = shl nuw nsw i64 %21, 8
  %23 = or disjoint i64 %18, %22
  %24 = getelementptr inbounds nuw i8, ptr %0, i64 11
  %25 = load i8, ptr %24, align 1, !tbaa !3
  %26 = zext i8 %25 to i64
  %27 = or disjoint i64 %23, %26
  %28 = getelementptr inbounds nuw i8, ptr %0, i64 %27
  %29 = sext i32 %1 to i64
  %30 = getelementptr inbounds i8, ptr %28, i64 %29
  %.not.i = icmp eq ptr %3, null
  br i1 %.not.i, label %fdt_get_property_by_offset_.exit.thread29, label %fdt_get_property_by_offset_.exit

fdt_get_property_by_offset_.exit:                 ; preds = %9
  %31 = getelementptr inbounds nuw i8, ptr %30, i64 4
  %32 = load i8, ptr %31, align 1, !tbaa !3
  %33 = zext i8 %32 to i32
  %34 = shl nuw i32 %33, 24
  %35 = getelementptr inbounds nuw i8, ptr %30, i64 5
  %36 = load i8, ptr %35, align 1, !tbaa !3
  %37 = zext i8 %36 to i32
  %38 = shl nuw nsw i32 %37, 16
  %39 = or disjoint i32 %38, %34
  %40 = getelementptr inbounds nuw i8, ptr %30, i64 6
  %41 = load i8, ptr %40, align 1, !tbaa !3
  %42 = zext i8 %41 to i32
  %43 = shl nuw nsw i32 %42, 8
  %44 = or disjoint i32 %39, %43
  %45 = getelementptr inbounds nuw i8, ptr %30, i64 7
  %46 = load i8, ptr %45, align 1, !tbaa !3
  %47 = zext i8 %46 to i32
  %48 = or disjoint i32 %44, %47
  store i32 %48, ptr %3, align 4, !tbaa !6
  br label %fdt_get_property_by_offset_.exit.thread29

fdt_get_property_by_offset_.exit.thread29:        ; preds = %9, %fdt_get_property_by_offset_.exit
  %.not23 = icmp eq ptr %2, null
  br i1 %.not23, label %73, label %49

49:                                               ; preds = %fdt_get_property_by_offset_.exit.thread29
  call void @llvm.lifetime.start.p0(i64 4, ptr nonnull %5) #9
  %50 = getelementptr inbounds nuw i8, ptr %30, i64 8
  %51 = load i8, ptr %50, align 1, !tbaa !3
  %52 = zext i8 %51 to i32
  %53 = shl nuw i32 %52, 24
  %54 = getelementptr inbounds nuw i8, ptr %30, i64 9
  %55 = load i8, ptr %54, align 1, !tbaa !3
  %56 = zext i8 %55 to i32
  %57 = shl nuw nsw i32 %56, 16
  %58 = or disjoint i32 %57, %53
  %59 = getelementptr inbounds nuw i8, ptr %30, i64 10
  %60 = load i8, ptr %59, align 1, !tbaa !3
  %61 = zext i8 %60 to i32
  %62 = shl nuw nsw i32 %61, 8
  %63 = or disjoint i32 %58, %62
  %64 = getelementptr inbounds nuw i8, ptr %30, i64 11
  %65 = load i8, ptr %64, align 1, !tbaa !3
  %66 = zext i8 %65 to i32
  %67 = or disjoint i32 %63, %66
  %68 = call ptr @fdt_get_string(ptr noundef nonnull %0, i32 noundef %67, ptr noundef nonnull %5)
  %.not24.not = icmp eq ptr %68, null
  br i1 %.not24.not, label %69, label %72

69:                                               ; preds = %49
  br i1 %.not.i, label %.thread, label %70

70:                                               ; preds = %69
  %71 = load i32, ptr %5, align 4, !tbaa !6
  store i32 %71, ptr %3, align 4, !tbaa !6
  br label %.thread

.thread:                                          ; preds = %69, %70
  call void @llvm.lifetime.end.p0(i64 4, ptr nonnull %5) #9
  br label %fdt_get_property_by_offset_.exit.thread

72:                                               ; preds = %49
  store ptr %68, ptr %2, align 8, !tbaa !17
  call void @llvm.lifetime.end.p0(i64 4, ptr nonnull %5) #9
  br label %73

73:                                               ; preds = %72, %fdt_get_property_by_offset_.exit.thread29
  %74 = getelementptr inbounds nuw i8, ptr %0, i64 20
  %75 = load i8, ptr %74, align 1, !tbaa !3
  %76 = zext i8 %75 to i32
  %77 = shl nuw i32 %76, 24
  %78 = getelementptr inbounds nuw i8, ptr %0, i64 21
  %79 = load i8, ptr %78, align 1, !tbaa !3
  %80 = zext i8 %79 to i32
  %81 = shl nuw nsw i32 %80, 16
  %82 = or disjoint i32 %81, %77
  %83 = getelementptr inbounds nuw i8, ptr %0, i64 22
  %84 = load i8, ptr %83, align 1, !tbaa !3
  %85 = zext i8 %84 to i32
  %86 = shl nuw nsw i32 %85, 8
  %87 = or disjoint i32 %82, %86
  %88 = getelementptr inbounds nuw i8, ptr %0, i64 23
  %89 = load i8, ptr %88, align 1, !tbaa !3
  %90 = zext i8 %89 to i32
  %91 = or disjoint i32 %87, %90
  %92 = icmp ugt i32 %91, 15
  %93 = and i32 %1, 7
  %.not26 = icmp eq i32 %93, 4
  %or.cond = or i1 %.not26, %92
  br i1 %or.cond, label %116, label %94

94:                                               ; preds = %73
  %95 = getelementptr inbounds nuw i8, ptr %30, i64 4
  %96 = load i8, ptr %95, align 1, !tbaa !3
  %97 = zext i8 %96 to i32
  %98 = shl nuw i32 %97, 24
  %99 = getelementptr inbounds nuw i8, ptr %30, i64 5
  %100 = load i8, ptr %99, align 1, !tbaa !3
  %101 = zext i8 %100 to i32
  %102 = shl nuw nsw i32 %101, 16
  %103 = or disjoint i32 %102, %98
  %104 = getelementptr inbounds nuw i8, ptr %30, i64 6
  %105 = load i8, ptr %104, align 1, !tbaa !3
  %106 = zext i8 %105 to i32
  %107 = shl nuw nsw i32 %106, 8
  %108 = or disjoint i32 %103, %107
  %109 = getelementptr inbounds nuw i8, ptr %30, i64 7
  %110 = load i8, ptr %109, align 1, !tbaa !3
  %111 = zext i8 %110 to i32
  %112 = or disjoint i32 %108, %111
  %113 = icmp ugt i32 %112, 7
  br i1 %113, label %114, label %116

114:                                              ; preds = %94
  %115 = getelementptr inbounds nuw i8, ptr %30, i64 16
  br label %fdt_get_property_by_offset_.exit.thread

116:                                              ; preds = %94, %73
  %117 = getelementptr inbounds nuw i8, ptr %30, i64 12
  br label %fdt_get_property_by_offset_.exit.thread

fdt_get_property_by_offset_.exit.thread:          ; preds = %8, %.thread, %fdt_get_property_by_offset_.exit.thread33, %116, %114
  %.0 = phi ptr [ %115, %114 ], [ %117, %116 ], [ null, %fdt_get_property_by_offset_.exit.thread33 ], [ null, %.thread ], [ null, %8 ]
  ret ptr %.0
}